target datalayout = "e-m:e-p270:32:32-p271:32:32-p272:64:64-i64:64-i128:128-f80:128-n8:16:32:64-S128"
target triple = "x86_64-pc-linux-gnu"

%"class.OpenColorIO_v2_5dev::BuiltinConfigRegistryImpl" = type { %"class.OpenColorIO_v2_5dev::BuiltinConfigRegistry", %"class.std::vector.3" }
%"class.OpenColorIO_v2_5dev::BuiltinConfigRegistry" = type { ptr }
%"class.std::vector.3" = type { %"struct.std::_Vector_base.4" }
%"struct.std::_Vector_base.4" = type { %"struct.std::_Vector_base<OpenColorIO_v2_5dev::BuiltinConfigRegistryImpl::BuiltinConfigData, std::allocator<OpenColorIO_v2_5dev::BuiltinConfigRegistryImpl::BuiltinConfigData>>::_Vector_impl" }
%"struct.std::_Vector_base<OpenColorIO_v2_5dev::BuiltinConfigRegistryImpl::BuiltinConfigData, std::allocator<OpenColorIO_v2_5dev::BuiltinConfigRegistryImpl::BuiltinConfigData>>::_Vector_impl" = type { %"struct.std::_Vector_base<OpenColorIO_v2_5dev::BuiltinConfigRegistryImpl::BuiltinConfigData, std::allocator<OpenColorIO_v2_5dev::BuiltinConfigRegistryImpl::BuiltinConfigData>>::_Vector_impl_data" }
%"struct.std::_Vector_base<OpenColorIO_v2_5dev::BuiltinConfigRegistryImpl::BuiltinConfigData, std::allocator<OpenColorIO_v2_5dev::BuiltinConfigRegistryImpl::BuiltinConfigData>>::_Vector_impl_data" = type { ptr, ptr, ptr }
%"class.std::__cxx11::basic_string" = type { %"struct.std::__cxx11::basic_string<char>::_Alloc_hider", i64, %union.anon }
%"struct.std::__cxx11::basic_string<char>::_Alloc_hider" = type { ptr }
%union.anon = type { i64, [8 x i8] }
%"struct.OpenColorIO_v2_5dev::BuiltinConfigRegistryImpl::BuiltinConfigData" = type <{ ptr, %"class.std::__cxx11::basic_string", %"class.std::__cxx11::basic_string", i8, [7 x i8] }>

@_ZL27OUT_OF_RANGE_EXCEPTION_TEXT = internal constant [30 x i8] c"Config index is out of range.\00", align 16
@_ZTIN19OpenColorIO_v2_5dev9ExceptionE = external constant ptr

; Function Attrs: mustprogress nounwind uwtable
define linkonce_odr hidden noundef nonnull align 8 dereferenceable(73) ptr @_ZNKSt6vectorIN19OpenColorIO_v2_5dev25BuiltinConfigRegistryImpl17BuiltinConfigDataESaIS2_EEixEm(ptr noundef nonnull align 8 dereferenceable(24) %0, i64 noundef %1) #0 comdat align 2 {
  %3 = alloca ptr, align 8
  %4 = alloca i64, align 8
  store ptr %0, ptr %3, align 8, !tbaa !33
  store i64 %1, ptr %4, align 8, !tbaa !21
  %5 = load ptr, ptr %3, align 8
  %6 = getelementptr inbounds nuw %"struct.std::_Vector_base.4", ptr %5, i32 0, i32 0
  %7 = getelementptr inbounds nuw %"struct.std::_Vector_base<OpenColorIO_v2_5dev::BuiltinConfigRegistryImpl::BuiltinConfigData, std::allocator<OpenColorIO_v2_5dev::BuiltinConfigRegistryImpl::BuiltinConfigData>>::_Vector_impl_data", ptr %6, i32 0, i32 0
  %8 = load ptr, ptr %7, align 8, !tbaa !35
  %9 = load i64, ptr %4, align 8, !tbaa !21
  %10 = getelementptr inbounds nuw %"struct.OpenColorIO_v2_5dev::BuiltinConfigRegistryImpl::BuiltinConfigData", ptr %8, i64 %9
  ret ptr %10
}

; Function Attrs: mustprogress nounwind uwtable
define linkonce_odr hidden noundef i64 @_ZNKSt6vectorIN19OpenColorIO_v2_5dev25BuiltinConfigRegistryImpl17BuiltinConfigDataESaIS2_EE4sizeEv(ptr noundef nonnull align 8 dereferenceable(24) %0) #0 comdat align 2 {
  %2 = alloca ptr, align 8
  store ptr %0, ptr %2, align 8, !tbaa !33
  %3 = load ptr, ptr %2, align 8
  %4 = getelementptr inbounds nuw %"struct.std::_Vector_base.4", ptr %3, i32 0, i32 0
  %5 = getelementptr inbounds nuw %"struct.std::_Vector_base<OpenColorIO_v2_5dev::BuiltinConfigRegistryImpl::BuiltinConfigData, std::allocator<OpenColorIO_v2_5dev::BuiltinConfigRegistryImpl::BuiltinConfigData>>::_Vector_impl_data", ptr %4, i32 0, i32 1
  %6 = load ptr, ptr %5, align 8, !tbaa !52
  %7 = getelementptr inbounds nuw %"struct.std::_Vector_base.4", ptr %3, i32 0, i32 0
  %8 = getelementptr inbounds nuw %"struct.std::_Vector_base<OpenColorIO_v2_5dev::BuiltinConfigRegistryImpl::BuiltinConfigData, std::allocator<OpenColorIO_v2_5dev::BuiltinConfigRegistryImpl::BuiltinConfigData>>::_Vector_impl_data", ptr %7, i32 0, i32 0
  %9 = load ptr, ptr %8, align 8, !tbaa !35
  %10 = ptrtoint ptr %6 to i64
  %11 = ptrtoint ptr %9 to i64
  %12 = sub i64 %10, %11
  %13 = sdiv exact i64 %12, 80
  ret i64 %13
}

; Function Attrs: mustprogress uwtable
define hidden noundef zeroext i1 @_ZNK19OpenColorIO_v2_5dev25BuiltinConfigRegistryImpl26isBuiltinConfigRecommendedEm(ptr noundef nonnull align 8 dereferenceable(32) %0, i64 noundef %1) unnamed_addr #2 align 2 personality ptr @__gxx_personality_v0 {
  %3 = alloca ptr, align 8
  %4 = alloca i64, align 8
  %5 = alloca ptr, align 8
  %6 = alloca i32, align 4
  store ptr %0, ptr %3, align 8, !tbaa !23
  store i64 %1, ptr %4, align 8, !tbaa !21
  %7 = load ptr, ptr %3, align 8
  %8 = load i64, ptr %4, align 8, !tbaa !21
  %9 = getelementptr inbounds nuw %"class.OpenColorIO_v2_5dev::BuiltinConfigRegistryImpl", ptr %7, i32 0, i32 1
  %10 = call noundef i64 @_ZNKSt6vectorIN19OpenColorIO_v2_5dev25BuiltinConfigRegistryImpl17BuiltinConfigDataESaIS2_EE4sizeEv(ptr noundef nonnull align 8 dereferenceable(24) %9) #1
  %11 = icmp uge i64 %8, %10
  br i1 %11, label %12, label %19

12:                                               ; preds = %2
  %13 = call ptr @__cxa_allocate_exception(i64 16) #1
  invoke void @_ZN19OpenColorIO_v2_5dev9ExceptionC1EPKc(ptr noundef nonnull align 8 dereferenceable(16) %13, ptr noundef @_ZL27OUT_OF_RANGE_EXCEPTION_TEXT)
          to label %14 unwind label %15

14:                                               ; preds = %12
  call void @__cxa_throw(ptr %13, ptr @_ZTIN19OpenColorIO_v2_5dev9ExceptionE, ptr @_ZN19OpenColorIO_v2_5dev9ExceptionD1Ev) #25
  unreachable

15:                                               ; preds = %12
  %16 = landingpad { ptr, i32 }
          cleanup
  %17 = extractvalue { ptr, i32 } %16, 0
  store ptr %17, ptr %5, align 8
  %18 = extractvalue { ptr, i32 } %16, 1
  store i32 %18, ptr %6, align 4
  call void @__cxa_free_exception(ptr %13) #1
  br label %26

19:                                               ; preds = %2
  %20 = getelementptr inbounds nuw %"class.OpenColorIO_v2_5dev::BuiltinConfigRegistryImpl", ptr %7, i32 0, i32 1
  %21 = load i64, ptr %4, align 8, !tbaa !21
  %22 = call noundef nonnull align 8 dereferenceable(73) ptr @_ZNKSt6vectorIN19OpenColorIO_v2_5dev25BuiltinConfigRegistryImpl17BuiltinConfigDataESaIS2_EEixEm(ptr noundef nonnull align 8 dereferenceable(24) %20, i64 noundef %21) #1
  %23 = getelementptr inbounds nuw %"struct.OpenColorIO_v2_5dev::BuiltinConfigRegistryImpl::BuiltinConfigData", ptr %22, i32 0, i32 3
  %24 = load i8, ptr %23, align 8, !tbaa !47, !range !40, !noundef !41
  %25 = trunc i8 %24 to i1
  ret i1 %25

26:                                               ; preds = %15
  %27 = load ptr, ptr %5, align 8
  %28 = load i32, ptr %6, align 4
  %29 = insertvalue { ptr, i32 } poison, ptr %27, 0
  %30 = insertvalue { ptr, i32 } %29, i32 %28, 1
  resume { ptr, i32 } %30
}